; Function Attrs: nounwind uwtable
define hidden i32 @ir_strl(ptr noundef %0, ptr noundef %1, i64 noundef %2) local_unnamed_addr #0 {
  %4 = getelementptr inbounds i8, ptr %0, i64 336
  %5 = load ptr, ptr %4, align 8
  %.not = icmp eq ptr %5, null
  br i1 %.not, label %6, label %7

6:                                                ; preds = %3
  tail call void @ir_strtab_init(ptr noundef nonnull %4, i32 noundef 64, i32 noundef 4096) #20
  br label %7

7:                                                ; preds = %6, %3
  %8 = trunc i64 %2 to i32
  %9 = getelementptr inbounds i8, ptr %0, i64 352
  %10 = load i32, ptr %9, align 8
  %11 = add i32 %10, 1
  %12 = tail call i32 @ir_strtab_lookup(ptr noundef nonnull %4, ptr noundef %1, i32 noundef %8, i32 noundef %11) #20
  ret i32 %12
}